target datalayout = "e-m:e-p270:32:32-p271:32:32-p272:64:64-i64:64-i128:128-f80:128-n8:16:32:64-S128"
target triple = "x86_64-pc-linux-gnu"

%struct._TSUM_PREFERENCES = type { i32, i8, ptr, ptr, i8, i32, i8, i8, i8, i8, i8, i8, i8, i8 }

@proto_register_transum.ett = internal global [3 x ptr] [ptr @ett_transum, ptr @ett_transum_header, ptr @ett_transum_data], align 16
@.str.71 = private unnamed_addr constant [17 x i8] c"TRANSUM RTE Data\00", align 1
@.str.72 = private unnamed_addr constant [8 x i8] c"TRANSUM\00", align 1
@.str.73 = private unnamed_addr constant [8 x i8] c"transum\00", align 1
@proto_transum = internal global i32 0, align 4
@preferences = hidden global %struct._TSUM_PREFERENCES zeroinitializer, align 8
@tcp_svc_port_range_values = internal global ptr null, align 8
@.str.74 = private unnamed_addr constant [18 x i8] c"25, 80, 443, 1433\00", align 1
@udp_svc_port_range_values = internal global ptr null, align 8
@.str.75 = private unnamed_addr constant [8 x i8] c"137-139\00", align 1
@.str.76 = private unnamed_addr constant [12 x i8] c"tsumenabled\00", align 1
@.str.77 = private unnamed_addr constant [17 x i8] c"capture_position\00", align 1
@.str.78 = private unnamed_addr constant [17 x i8] c"Capture position\00", align 1
@.str.79 = private unnamed_addr constant [151 x i8] c"Position of the capture unit that produced this trace.  This setting affects the way TRANSUM handles TCP Retransmissions.  See the manual for details.\00", align 1
@.str.80 = private unnamed_addr constant [11 x i8] c"reassembly\00", align 1
@.str.81 = private unnamed_addr constant [32 x i8] c"Subdissector reassembly enabled\00", align 1
@.str.82 = private unnamed_addr constant [61 x i8] c"Set this to match to the TCP subdissector reassembly setting\00", align 1
@.str.83 = private unnamed_addr constant [16 x i8] c"tcp_port_ranges\00", align 1
@.str.84 = private unnamed_addr constant [44 x i8] c"Output RTE data for these TCP service ports\00", align 1
@.str.85 = private unnamed_addr constant [96 x i8] c"Add and remove ports numbers separated by commas\0ARanges are supported e.g. 25,80,2000-3000,5432\00", align 1
@.str.86 = private unnamed_addr constant [16 x i8] c"udp_port_ranges\00", align 1
@.str.87 = private unnamed_addr constant [44 x i8] c"Output RTE data for these UDP service ports\00", align 1
@.str.88 = private unnamed_addr constant [100 x i8] c"Add and remove ports numbers separated by commas\0ARanges are supported e.g. 123,137-139,520-521,2049\00", align 1
@.str.89 = private unnamed_addr constant [18 x i8] c"orphan_ka_discard\00", align 1
@.str.90 = private unnamed_addr constant [33 x i8] c"Discard orphaned TCP Keep-Alives\00", align 1
@.str.91 = private unnamed_addr constant [118 x i8] c"Set this to discard any packet in the direction client to service,\0Awith a 1-byte payload of 0x00 and the ACK flag set\00", align 1
@.str.92 = private unnamed_addr constant [17 x i8] c"rte_on_first_req\00", align 1
@.str.93 = private unnamed_addr constant [42 x i8] c"Add RTE data to the first request segment\00", align 1
@.str.94 = private unnamed_addr constant [51 x i8] c"RTE data will be added to the first request packet\00", align 1
@.str.95 = private unnamed_addr constant [16 x i8] c"rte_on_last_req\00", align 1
@.str.96 = private unnamed_addr constant [41 x i8] c"Add RTE data to the last request segment\00", align 1
@.str.97 = private unnamed_addr constant [50 x i8] c"RTE data will be added to the last request packet\00", align 1
@.str.98 = private unnamed_addr constant [17 x i8] c"rte_on_first_rsp\00", align 1
@.str.99 = private unnamed_addr constant [43 x i8] c"Add RTE data to the first response segment\00", align 1
@.str.100 = private unnamed_addr constant [52 x i8] c"RTE data will be added to the first response packet\00", align 1
@.str.101 = private unnamed_addr constant [16 x i8] c"rte_on_last_rsp\00", align 1
@.str.102 = private unnamed_addr constant [42 x i8] c"Add RTE data to the last response segment\00", align 1
@.str.103 = private unnamed_addr constant [51 x i8] c"RTE data will be added to the last response packet\00", align 1
@.str.104 = private unnamed_addr constant [14 x i8] c"debug_enabled\00", align 1
@.str.105 = private unnamed_addr constant [18 x i8] c"Enable debug info\00", align 1
@.str.106 = private unnamed_addr constant [39 x i8] c"Set this only to troubleshoot problems\00", align 1
@transum_handle = internal global ptr null, align 8
@output_rrpd = internal global ptr null, align 8

; Function Attrs: null_pointer_is_valid sspstrong uwtable
define hidden void @proto_register_transum() #0 {
  %1 = alloca ptr, align 8
  call void @llvm.lifetime.start.p0(i64 8, ptr %1) #9
  %2 = call i32 @proto_register_protocol(ptr noundef @.str.71, ptr noundef @.str.72, ptr noundef @.str.73)
  store i32 %2, ptr @proto_transum, align 4
  %3 = load i32, ptr @proto_transum, align 4
  call void @proto_disable_by_default(i32 noundef %3)
  store i32 1, ptr @preferences, align 8
  store i8 1, ptr getelementptr inbounds nuw (%struct._TSUM_PREFERENCES, ptr @preferences, i32 0, i32 1), align 4
  %4 = call ptr @wmem_epan_scope()
  %5 = call i32 @range_convert_str(ptr noundef %4, ptr noundef @tcp_svc_port_range_values, ptr noundef @.str.74, i32 noundef 65535)
  %6 = call ptr @wmem_epan_scope()
  %7 = call i32 @range_convert_str(ptr noundef %6, ptr noundef @udp_svc_port_range_values, ptr noundef @.str.75, i32 noundef 65535)
  store i8 0, ptr getelementptr inbounds nuw (%struct._TSUM_PREFERENCES, ptr @preferences, i32 0, i32 4), align 8
  store i32 1, ptr getelementptr inbounds nuw (%struct._TSUM_PREFERENCES, ptr @preferences, i32 0, i32 5), align 4
  store i8 0, ptr getelementptr inbounds nuw (%struct._TSUM_PREFERENCES, ptr @preferences, i32 0, i32 6), align 8
  store i8 1, ptr getelementptr inbounds nuw (%struct._TSUM_PREFERENCES, ptr @preferences, i32 0, i32 7), align 1
  store i8 0, ptr getelementptr inbounds nuw (%struct._TSUM_PREFERENCES, ptr @preferences, i32 0, i32 8), align 2
  store i8 0, ptr getelementptr inbounds nuw (%struct._TSUM_PREFERENCES, ptr @preferences, i32 0, i32 9), align 1
  store i8 0, ptr getelementptr inbounds nuw (%struct._TSUM_PREFERENCES, ptr @preferences, i32 0, i32 13), align 1
  %8 = load i32, ptr @proto_transum, align 4
  call void @proto_register_field_array(i32 noundef %8, ptr noundef @proto_register_transum.hf, i32 noundef 14)
  call void @proto_register_subtree_array(ptr noundef @proto_register_transum.ett, i32 noundef 3)
  %9 = load i32, ptr @proto_transum, align 4
  %10 = call ptr @prefs_register_protocol(i32 noundef %9, ptr noundef null)
  store ptr %10, ptr %1, align 8
  %11 = load ptr, ptr %1, align 8
  call void @prefs_register_obsolete_preference(ptr noundef %11, ptr noundef @.str.76)
  %12 = load ptr, ptr %1, align 8
  call void @prefs_register_enum_preference(ptr noundef %12, ptr noundef @.str.77, ptr noundef @.str.78, ptr noundef @.str.79, ptr noundef @preferences, ptr noundef @capture_position_vals, i1 noundef zeroext false)
  %13 = load ptr, ptr %1, align 8
  call void @prefs_register_bool_preference(ptr noundef %13, ptr noundef @.str.80, ptr noundef @.str.81, ptr noundef @.str.82, ptr noundef getelementptr inbounds nuw (%struct._TSUM_PREFERENCES, ptr @preferences, i32 0, i32 1))
  %14 = load ptr, ptr %1, align 8
  call void @prefs_register_range_preference(ptr noundef %14, ptr noundef @.str.83, ptr noundef @.str.84, ptr noundef @.str.85, ptr noundef @tcp_svc_port_range_values, i32 noundef 65536)
  %15 = load ptr, ptr %1, align 8
  call void @prefs_register_range_preference(ptr noundef %15, ptr noundef @.str.86, ptr noundef @.str.87, ptr noundef @.str.88, ptr noundef @udp_svc_port_range_values, i32 noundef 65536)
  %16 = load ptr, ptr %1, align 8
  call void @prefs_register_bool_preference(ptr noundef %16, ptr noundef @.str.89, ptr noundef @.str.90, ptr noundef @.str.91, ptr noundef getelementptr inbounds nuw (%struct._TSUM_PREFERENCES, ptr @preferences, i32 0, i32 4))
  %17 = load ptr, ptr %1, align 8
  call void @prefs_register_bool_preference(ptr noundef %17, ptr noundef @.str.92, ptr noundef @.str.93, ptr noundef @.str.94, ptr noundef getelementptr inbounds nuw (%struct._TSUM_PREFERENCES, ptr @preferences, i32 0, i32 6))
  %18 = load ptr, ptr %1, align 8
  call void @prefs_register_bool_preference(ptr noundef %18, ptr noundef @.str.95, ptr noundef @.str.96, ptr noundef @.str.97, ptr noundef getelementptr inbounds nuw (%struct._TSUM_PREFERENCES, ptr @preferences, i32 0, i32 7))
  %19 = load ptr, ptr %1, align 8
  call void @prefs_register_bool_preference(ptr noundef %19, ptr noundef @.str.98, ptr noundef @.str.99, ptr noundef @.str.100, ptr noundef getelementptr inbounds nuw (%struct._TSUM_PREFERENCES, ptr @preferences, i32 0, i32 8))
  %20 = load ptr, ptr %1, align 8
  call void @prefs_register_bool_preference(ptr noundef %20, ptr noundef @.str.101, ptr noundef @.str.102, ptr noundef @.str.103, ptr noundef getelementptr inbounds nuw (%struct._TSUM_PREFERENCES, ptr @preferences, i32 0, i32 9))
  %21 = load ptr, ptr %1, align 8
  call void @prefs_register_bool_preference(ptr noundef %21, ptr noundef @.str.104, ptr noundef @.str.105, ptr noundef @.str.106, ptr noundef getelementptr inbounds nuw (%struct._TSUM_PREFERENCES, ptr @preferences, i32 0, i32 13))
  %22 = load i32, ptr @proto_transum, align 4
  %23 = call ptr @register_dissector(ptr noundef @.str.73, ptr noundef @dissect_transum, i32 noundef %22)
  store ptr %23, ptr @transum_handle, align 8
  call void @register_init_routine(ptr noundef @init_globals)
  call void @register_cleanup_routine(ptr noundef @cleanup_globals)
  %24 = load ptr, ptr @transum_handle, align 8
  call void @register_postdissector(ptr noundef %24)
  %25 = call ptr @wmem_epan_scope()
  %26 = call ptr @wmem_file_scope()
  %27 = call noalias ptr @wmem_map_new_autoreset(ptr noundef %25, ptr noundef %26, ptr noundef @g_direct_hash, ptr noundef @g_direct_equal)
  store ptr %27, ptr @output_rrpd, align 8
  call void @llvm.lifetime.end.p0(i64 8, ptr %1) #9
  ret void
}