; Function Attrs: null_pointer_is_valid sspstrong uwtable
define hidden void @proto_register_transum() local_unnamed_addr #0 {
  %1 = tail call i32 @proto_register_protocol(ptr noundef nonnull @.str.71, ptr noundef nonnull @.str.72, ptr noundef nonnull @.str.73)
  store i32 %1, ptr @proto_transum, align 4
  tail call void @proto_disable_by_default(i32 noundef %1)
  store i32 1, ptr @preferences, align 8
  store i8 1, ptr getelementptr inbounds nuw (i8, ptr @preferences, i64 4), align 4
  %2 = tail call ptr @wmem_epan_scope()
  %3 = tail call i32 @range_convert_str(ptr noundef %2, ptr noundef nonnull @tcp_svc_port_range_values, ptr noundef nonnull @.str.74, i32 noundef 65535)
  %4 = tail call ptr @wmem_epan_scope()
  %5 = tail call i32 @range_convert_str(ptr noundef %4, ptr noundef nonnull @udp_svc_port_range_values, ptr noundef nonnull @.str.75, i32 noundef 65535)
  store i8 0, ptr getelementptr inbounds nuw (i8, ptr @preferences, i64 24), align 8
  store i32 1, ptr getelementptr inbounds nuw (i8, ptr @preferences, i64 28), align 4
  store i8 0, ptr getelementptr inbounds nuw (i8, ptr @preferences, i64 32), align 8
  store i8 1, ptr getelementptr inbounds nuw (i8, ptr @preferences, i64 33), align 1
  store i8 0, ptr getelementptr inbounds nuw (i8, ptr @preferences, i64 34), align 2
  store i8 0, ptr getelementptr inbounds nuw (i8, ptr @preferences, i64 35), align 1
  store i8 0, ptr getelementptr inbounds nuw (i8, ptr @preferences, i64 39), align 1
  %6 = load i32, ptr @proto_transum, align 4
  tail call void @proto_register_field_array(i32 noundef %6, ptr noundef nonnull @proto_register_transum.hf, i32 noundef 14)
  tail call void @proto_register_subtree_array(ptr noundef nonnull @proto_register_transum.ett, i32 noundef 3)
  %7 = load i32, ptr @proto_transum, align 4
  %8 = tail call ptr @prefs_register_protocol(i32 noundef %7, ptr noundef null)
  tail call void @prefs_register_obsolete_preference(ptr noundef %8, ptr noundef nonnull @.str.76)
  tail call void @prefs_register_enum_preference(ptr noundef %8, ptr noundef nonnull @.str.77, ptr noundef nonnull @.str.78, ptr noundef nonnull @.str.79, ptr noundef nonnull @preferences, ptr noundef nonnull @capture_position_vals, i1 noundef zeroext false)
  tail call void @prefs_register_bool_preference(ptr noundef %8, ptr noundef nonnull @.str.80, ptr noundef nonnull @.str.81, ptr noundef nonnull @.str.82, ptr noundef nonnull getelementptr inbounds nuw (i8, ptr @preferences, i64 4))
  tail call void @prefs_register_range_preference(ptr noundef %8, ptr noundef nonnull @.str.83, ptr noundef nonnull @.str.84, ptr noundef nonnull @.str.85, ptr noundef nonnull @tcp_svc_port_range_values, i32 noundef 65536)
  tail call void @prefs_register_range_preference(ptr noundef %8, ptr noundef nonnull @.str.86, ptr noundef nonnull @.str.87, ptr noundef nonnull @.str.88, ptr noundef nonnull @udp_svc_port_range_values, i32 noundef 65536)
  tail call void @prefs_register_bool_preference(ptr noundef %8, ptr noundef nonnull @.str.89, ptr noundef nonnull @.str.90, ptr noundef nonnull @.str.91, ptr noundef nonnull getelementptr inbounds nuw (i8, ptr @preferences, i64 24))
  tail call void @prefs_register_bool_preference(ptr noundef %8, ptr noundef nonnull @.str.92, ptr noundef nonnull @.str.93, ptr noundef nonnull @.str.94, ptr noundef nonnull getelementptr inbounds nuw (i8, ptr @preferences, i64 32))
  tail call void @prefs_register_bool_preference(ptr noundef %8, ptr noundef nonnull @.str.95, ptr noundef nonnull @.str.96, ptr noundef nonnull @.str.97, ptr noundef nonnull getelementptr inbounds nuw (i8, ptr @preferences, i64 33))
  tail call void @prefs_register_bool_preference(ptr noundef %8, ptr noundef nonnull @.str.98, ptr noundef nonnull @.str.99, ptr noundef nonnull @.str.100, ptr noundef nonnull getelementptr inbounds nuw (i8, ptr @preferences, i64 34))
  tail call void @prefs_register_bool_preference(ptr noundef %8, ptr noundef nonnull @.str.101, ptr noundef nonnull @.str.102, ptr noundef nonnull @.str.103, ptr noundef nonnull getelementptr inbounds nuw (i8, ptr @preferences, i64 35))
  tail call void @prefs_register_bool_preference(ptr noundef %8, ptr noundef nonnull @.str.104, ptr noundef nonnull @.str.105, ptr noundef nonnull @.str.106, ptr noundef nonnull getelementptr inbounds nuw (i8, ptr @preferences, i64 39))
  %9 = load i32, ptr @proto_transum, align 4
  %10 = tail call ptr @register_dissector(ptr noundef nonnull @.str.73, ptr noundef nonnull @dissect_transum, i32 noundef %9)
  store ptr %10, ptr @transum_handle, align 8
  tail call void @register_init_routine(ptr noundef nonnull @init_globals)
  tail call void @register_cleanup_routine(ptr noundef nonnull @cleanup_globals)
  %11 = load ptr, ptr @transum_handle, align 8
  tail call void @register_postdissector(ptr noundef %11)
  %12 = tail call ptr @wmem_epan_scope()
  %13 = tail call ptr @wmem_file_scope()
  %14 = tail call noalias ptr @wmem_map_new_autoreset(ptr noundef %12, ptr noundef %13, ptr noundef nonnull @g_direct_hash, ptr noundef nonnull @g_direct_equal)
  store ptr %14, ptr @output_rrpd, align 8
  ret void
}